target datalayout = "e-m:e-p270:32:32-p271:32:32-p272:64:64-i64:64-i128:128-f80:128-n8:16:32:64-S128"
target triple = "x86_64-pc-linux-gnu"

%"class.std::__cxx11::basic_string" = type { %"struct.std::__cxx11::basic_string<char>::_Alloc_hider", i64, %union.anon }
%"struct.std::__cxx11::basic_string<char>::_Alloc_hider" = type { ptr }
%union.anon = type { i64, [8 x i8] }
%"class.testing::UnitTest" = type { ptr, %"class.testing::internal::Mutex", ptr }
%"class.testing::internal::Mutex" = type { %"class.testing::internal::MutexBase" }
%"class.testing::internal::MutexBase" = type { %union.pthread_mutex_t, i8, i64 }
%union.pthread_mutex_t = type { %struct.__pthread_mutex_s }
%struct.__pthread_mutex_s = type { i32, i32, i32, i32, i32, i16, i16, %struct.__pthread_internal_list }
%struct.__pthread_internal_list = type { ptr, ptr }
%"class.testing::internal::UnitTestImpl" = type <{ ptr, ptr, %"class.testing::internal::FilePath", %"class.testing::internal::DefaultGlobalTestPartResultReporter", %"class.testing::internal::DefaultPerThreadTestPartResultReporter", ptr, %"class.testing::internal::Mutex", %"class.testing::internal::ThreadLocal", %"class.std::vector", %"class.std::vector.21", %"class.std::unordered_map", %"class.std::vector.31", %"class.testing::internal::ParameterizedTestSuiteRegistry", %"class.testing::internal::TypeParameterizedTestSuiteRegistry", %"class.std::set", i8, [3 x i8], i32, ptr, ptr, %"class.testing::TestResult", %"class.testing::TestEventListeners", ptr, i8, [3 x i8], i32, %"class.testing::internal::Random", [4 x i8], i64, i64, %"class.std::unique_ptr.72", %"class.std::unique_ptr.80", %"class.testing::internal::ThreadLocal.88", i8, [7 x i8] }>
%"class.testing::internal::FilePath" = type { %"class.std::__cxx11::basic_string" }
%"class.testing::internal::DefaultGlobalTestPartResultReporter" = type { %"class.testing::TestPartResultReporterInterface", ptr }
%"class.testing::TestPartResultReporterInterface" = type { ptr }
%"class.testing::internal::DefaultPerThreadTestPartResultReporter" = type { %"class.testing::TestPartResultReporterInterface", ptr }
%"class.testing::internal::ThreadLocal" = type { i32, %"class.std::unique_ptr.10" }
%"class.std::unique_ptr.10" = type { %"struct.std::__uniq_ptr_data.11" }
%"struct.std::__uniq_ptr_data.11" = type { %"class.std::__uniq_ptr_impl.12" }
%"class.std::__uniq_ptr_impl.12" = type { %"class.std::tuple.13" }
%"class.std::tuple.13" = type { %"struct.std::_Tuple_impl.14" }
%"struct.std::_Tuple_impl.14" = type { %"struct.std::_Head_base.17" }
%"struct.std::_Head_base.17" = type { ptr }
%"class.std::vector" = type { %"struct.std::_Vector_base" }
%"struct.std::_Vector_base" = type { %"struct.std::_Vector_base<testing::Environment *, std::allocator<testing::Environment *>>::_Vector_impl" }
%"struct.std::_Vector_base<testing::Environment *, std::allocator<testing::Environment *>>::_Vector_impl" = type { %"struct.std::_Vector_base<testing::Environment *, std::allocator<testing::Environment *>>::_Vector_impl_data" }
%"struct.std::_Vector_base<testing::Environment *, std::allocator<testing::Environment *>>::_Vector_impl_data" = type { ptr, ptr, ptr }
%"class.std::vector.21" = type { %"struct.std::_Vector_base.22" }
%"struct.std::_Vector_base.22" = type { %"struct.std::_Vector_base<testing::TestSuite *, std::allocator<testing::TestSuite *>>::_Vector_impl" }
%"struct.std::_Vector_base<testing::TestSuite *, std::allocator<testing::TestSuite *>>::_Vector_impl" = type { %"struct.std::_Vector_base<testing::TestSuite *, std::allocator<testing::TestSuite *>>::_Vector_impl_data" }
%"struct.std::_Vector_base<testing::TestSuite *, std::allocator<testing::TestSuite *>>::_Vector_impl_data" = type { ptr, ptr, ptr }
%"class.std::unordered_map" = type { %"class.std::_Hashtable" }
%"class.std::_Hashtable" = type { ptr, i64, %"struct.std::__detail::_Hash_node_base", i64, %"struct.std::__detail::_Prime_rehash_policy", ptr }
%"struct.std::__detail::_Hash_node_base" = type { ptr }
%"struct.std::__detail::_Prime_rehash_policy" = type { float, i64 }
%"class.std::vector.31" = type { %"struct.std::_Vector_base.32" }
%"struct.std::_Vector_base.32" = type { %"struct.std::_Vector_base<int, std::allocator<int>>::_Vector_impl" }
%"struct.std::_Vector_base<int, std::allocator<int>>::_Vector_impl" = type { %"struct.std::_Vector_base<int, std::allocator<int>>::_Vector_impl_data" }
%"struct.std::_Vector_base<int, std::allocator<int>>::_Vector_impl_data" = type { ptr, ptr, ptr }
%"class.testing::internal::ParameterizedTestSuiteRegistry" = type { %"class.std::vector.36", %"class.std::unordered_map.41" }
%"class.std::vector.36" = type { %"struct.std::_Vector_base.37" }
%"struct.std::_Vector_base.37" = type { %"struct.std::_Vector_base<testing::internal::ParameterizedTestSuiteInfoBase *, std::allocator<testing::internal::ParameterizedTestSuiteInfoBase *>>::_Vector_impl" }
%"struct.std::_Vector_base<testing::internal::ParameterizedTestSuiteInfoBase *, std::allocator<testing::internal::ParameterizedTestSuiteInfoBase *>>::_Vector_impl" = type { %"struct.std::_Vector_base<testing::internal::ParameterizedTestSuiteInfoBase *, std::allocator<testing::internal::ParameterizedTestSuiteInfoBase *>>::_Vector_impl_data" }
%"struct.std::_Vector_base<testing::internal::ParameterizedTestSuiteInfoBase *, std::allocator<testing::internal::ParameterizedTestSuiteInfoBase *>>::_Vector_impl_data" = type { ptr, ptr, ptr }
%"class.std::unordered_map.41" = type { %"class.std::_Hashtable.42" }
%"class.std::_Hashtable.42" = type { ptr, i64, %"struct.std::__detail::_Hash_node_base", i64, %"struct.std::__detail::_Prime_rehash_policy", ptr }
%"class.testing::internal::TypeParameterizedTestSuiteRegistry" = type { %"class.std::map" }
%"class.std::map" = type { %"class.std::_Rb_tree" }
%"class.std::_Rb_tree" = type { %"struct.std::_Rb_tree<std::__cxx11::basic_string<char>, std::pair<const std::__cxx11::basic_string<char>, testing::internal::TypeParameterizedTestSuiteRegistry::TypeParameterizedTestSuiteInfo>, std::_Select1st<std::pair<const std::__cxx11::basic_string<char>, testing::internal::TypeParameterizedTestSuiteRegistry::TypeParameterizedTestSuiteInfo>>, std::less<std::__cxx11::basic_string<char>>>::_Rb_tree_impl" }
%"struct.std::_Rb_tree<std::__cxx11::basic_string<char>, std::pair<const std::__cxx11::basic_string<char>, testing::internal::TypeParameterizedTestSuiteRegistry::TypeParameterizedTestSuiteInfo>, std::_Select1st<std::pair<const std::__cxx11::basic_string<char>, testing::internal::TypeParameterizedTestSuiteRegistry::TypeParameterizedTestSuiteInfo>>, std::less<std::__cxx11::basic_string<char>>>::_Rb_tree_impl" = type { [8 x i8], %"struct.std::_Rb_tree_header" }
%"struct.std::_Rb_tree_header" = type { %"struct.std::_Rb_tree_node_base", i64 }
%"struct.std::_Rb_tree_node_base" = type { i32, ptr, ptr, ptr }
%"class.std::set" = type { %"class.std::_Rb_tree.58" }
%"class.std::_Rb_tree.58" = type { %"struct.std::_Rb_tree<std::__cxx11::basic_string<char>, std::__cxx11::basic_string<char>, std::_Identity<std::__cxx11::basic_string<char>>, std::less<std::__cxx11::basic_string<char>>>::_Rb_tree_impl" }
%"struct.std::_Rb_tree<std::__cxx11::basic_string<char>, std::__cxx11::basic_string<char>, std::_Identity<std::__cxx11::basic_string<char>>, std::less<std::__cxx11::basic_string<char>>>::_Rb_tree_impl" = type { [8 x i8], %"struct.std::_Rb_tree_header" }
%"class.testing::TestResult" = type { %"class.testing::internal::Mutex", %"class.std::vector.62", %"class.std::vector.67", i32, i64, i64 }
%"class.std::vector.62" = type { %"struct.std::_Vector_base.63" }
%"struct.std::_Vector_base.63" = type { %"struct.std::_Vector_base<testing::TestPartResult, std::allocator<testing::TestPartResult>>::_Vector_impl" }
%"struct.std::_Vector_base<testing::TestPartResult, std::allocator<testing::TestPartResult>>::_Vector_impl" = type { %"struct.std::_Vector_base<testing::TestPartResult, std::allocator<testing::TestPartResult>>::_Vector_impl_data" }
%"struct.std::_Vector_base<testing::TestPartResult, std::allocator<testing::TestPartResult>>::_Vector_impl_data" = type { ptr, ptr, ptr }
%"class.std::vector.67" = type { %"struct.std::_Vector_base.68" }
%"struct.std::_Vector_base.68" = type { %"struct.std::_Vector_base<testing::TestProperty, std::allocator<testing::TestProperty>>::_Vector_impl" }
%"struct.std::_Vector_base<testing::TestProperty, std::allocator<testing::TestProperty>>::_Vector_impl" = type { %"struct.std::_Vector_base<testing::TestProperty, std::allocator<testing::TestProperty>>::_Vector_impl_data" }
%"struct.std::_Vector_base<testing::TestProperty, std::allocator<testing::TestProperty>>::_Vector_impl_data" = type { ptr, ptr, ptr }
%"class.testing::TestEventListeners" = type { ptr, ptr, ptr }
%"class.testing::internal::Random" = type { i32 }
%"class.std::unique_ptr.72" = type { %"struct.std::__uniq_ptr_data.73" }
%"struct.std::__uniq_ptr_data.73" = type { %"class.std::__uniq_ptr_impl.74" }
%"class.std::__uniq_ptr_impl.74" = type { %"class.std::tuple.75" }
%"class.std::tuple.75" = type { %"struct.std::_Tuple_impl.76" }
%"struct.std::_Tuple_impl.76" = type { %"struct.std::_Head_base.79" }
%"struct.std::_Head_base.79" = type { ptr }
%"class.std::unique_ptr.80" = type { %"struct.std::__uniq_ptr_data.81" }
%"struct.std::__uniq_ptr_data.81" = type { %"class.std::__uniq_ptr_impl.82" }
%"class.std::__uniq_ptr_impl.82" = type { %"class.std::tuple.83" }
%"class.std::tuple.83" = type { %"struct.std::_Tuple_impl.84" }
%"struct.std::_Tuple_impl.84" = type { %"struct.std::_Head_base.87" }
%"struct.std::_Head_base.87" = type { ptr }
%"class.testing::internal::ThreadLocal.88" = type { i32, %"class.std::unique_ptr.89" }
%"class.std::unique_ptr.89" = type { %"struct.std::__uniq_ptr_data.90" }
%"struct.std::__uniq_ptr_data.90" = type { %"class.std::__uniq_ptr_impl.91" }
%"class.std::__uniq_ptr_impl.91" = type { %"class.std::tuple.92" }
%"class.std::tuple.92" = type { %"struct.std::_Tuple_impl.93" }
%"struct.std::_Tuple_impl.93" = type { %"struct.std::_Head_base.96" }
%"struct.std::_Head_base.96" = type { ptr }

; Function Attrs: mustprogress nounwind uwtable
define linkonce_odr dso_local noundef nonnull align 8 dereferenceable(8) ptr @_ZNKSt6vectorIPN7testing9TestSuiteESaIS2_EEixEm(ptr noundef nonnull align 8 dereferenceable(24) %0, i64 noundef %1) #7 comdat align 2 {
  %3 = alloca ptr, align 8
  %4 = alloca i64, align 8
  store ptr %0, ptr %3, align 8, !tbaa !521
  store i64 %1, ptr %4, align 8, !tbaa !191
  %5 = load ptr, ptr %3, align 8
  %6 = getelementptr inbounds nuw %"struct.std::_Vector_base.22", ptr %5, i32 0, i32 0
  %7 = getelementptr inbounds nuw %"struct.std::_Vector_base<testing::TestSuite *, std::allocator<testing::TestSuite *>>::_Vector_impl_data", ptr %6, i32 0, i32 0
  %8 = load ptr, ptr %7, align 8, !tbaa !526
  %9 = load i64, ptr %4, align 8, !tbaa !191
  %10 = getelementptr inbounds nuw ptr, ptr %8, i64 %9
  ret ptr %10
}

; Function Attrs: mustprogress nounwind uwtable
define linkonce_odr dso_local noundef i64 @_ZNKSt6vectorIPN7testing9TestSuiteESaIS2_EE4sizeEv(ptr noundef nonnull align 8 dereferenceable(24) %0) #7 comdat align 2 {
  %2 = alloca ptr, align 8
  store ptr %0, ptr %2, align 8, !tbaa !521
  %3 = load ptr, ptr %2, align 8
  %4 = getelementptr inbounds nuw %"struct.std::_Vector_base.22", ptr %3, i32 0, i32 0
  %5 = getelementptr inbounds nuw %"struct.std::_Vector_base<testing::TestSuite *, std::allocator<testing::TestSuite *>>::_Vector_impl_data", ptr %4, i32 0, i32 1
  %6 = load ptr, ptr %5, align 8, !tbaa !525
  %7 = getelementptr inbounds nuw %"struct.std::_Vector_base.22", ptr %3, i32 0, i32 0
  %8 = getelementptr inbounds nuw %"struct.std::_Vector_base<testing::TestSuite *, std::allocator<testing::TestSuite *>>::_Vector_impl_data", ptr %7, i32 0, i32 0
  %9 = load ptr, ptr %8, align 8, !tbaa !526
  %10 = ptrtoint ptr %6 to i64
  %11 = ptrtoint ptr %9 to i64
  %12 = sub i64 %10, %11
  %13 = sdiv exact i64 %12, 8
  ret i64 %13
}

; Function Attrs: mustprogress uwtable
define internal noundef i32 @_ZN7testing8internalL20SumOverTestSuiteListERKSt6vectorIPNS_9TestSuiteESaIS3_EEMS2_KFivE(ptr noundef nonnull align 8 dereferenceable(24) %0, i64 %1, i64 %2) #4 {
  %4 = alloca { i64, i64 }, align 8
  %5 = alloca ptr, align 8
  %6 = alloca { i64, i64 }, align 8
  %7 = alloca i32, align 4
  %8 = alloca i64, align 8
  %9 = getelementptr inbounds nuw { i64, i64 }, ptr %4, i32 0, i32 0
  store i64 %1, ptr %9, align 8
  %10 = getelementptr inbounds nuw { i64, i64 }, ptr %4, i32 0, i32 1
  store i64 %2, ptr %10, align 8
  %11 = load { i64, i64 }, ptr %4, align 8, !tbaa !172
  store ptr %0, ptr %5, align 8, !tbaa !521
  store { i64, i64 } %11, ptr %6, align 8, !tbaa !172
  call void @llvm.lifetime.start.p0(i64 4, ptr %7) #3
  store i32 0, ptr %7, align 4, !tbaa !40
  call void @llvm.lifetime.start.p0(i64 8, ptr %8) #3
  store i64 0, ptr %8, align 8, !tbaa !191
  br label %12

12:                                               ; preds = %41, %3
  %13 = load i64, ptr %8, align 8, !tbaa !191
  %14 = load ptr, ptr %5, align 8, !tbaa !521
  %15 = call noundef i64 @_ZNKSt6vectorIPN7testing9TestSuiteESaIS2_EE4sizeEv(ptr noundef nonnull align 8 dereferenceable(24) %14) #3
  %16 = icmp ult i64 %13, %15
  br i1 %16, label %18, label %17

17:                                               ; preds = %12
  call void @llvm.lifetime.end.p0(i64 8, ptr %8) #3
  br label %44

18:                                               ; preds = %12
  %19 = load ptr, ptr %5, align 8, !tbaa !521
  %20 = load i64, ptr %8, align 8, !tbaa !191
  %21 = call noundef nonnull align 8 dereferenceable(8) ptr @_ZNKSt6vectorIPN7testing9TestSuiteESaIS2_EEixEm(ptr noundef nonnull align 8 dereferenceable(24) %19, i64 noundef %20) #3
  %22 = load ptr, ptr %21, align 8, !tbaa !523
  %23 = load { i64, i64 }, ptr %6, align 8, !tbaa !172
  %24 = extractvalue { i64, i64 } %23, 1
  %25 = getelementptr inbounds i8, ptr %22, i64 %24
  %26 = extractvalue { i64, i64 } %23, 0
  %27 = and i64 %26, 1
  %28 = icmp ne i64 %27, 0
  br i1 %28, label %29, label %34

29:                                               ; preds = %18
  %30 = load ptr, ptr %25, align 8, !tbaa !50
  %31 = sub i64 %26, 1
  %32 = getelementptr i8, ptr %30, i64 %31, !nosanitize !20
  %33 = load ptr, ptr %32, align 8, !nosanitize !20
  br label %36

34:                                               ; preds = %18
  %35 = inttoptr i64 %26 to ptr
  br label %36

36:                                               ; preds = %34, %29
  %37 = phi ptr [ %33, %29 ], [ %35, %34 ]
  %38 = call noundef i32 %37(ptr noundef nonnull align 8 dereferenceable(264) %25)
  %39 = load i32, ptr %7, align 4, !tbaa !40
  %40 = add nsw i32 %39, %38
  store i32 %40, ptr %7, align 4, !tbaa !40
  br label %41

41:                                               ; preds = %36
  %42 = load i64, ptr %8, align 8, !tbaa !191
  %43 = add i64 %42, 1
  store i64 %43, ptr %8, align 8, !tbaa !191
  br label %12, !llvm.loop !527

44:                                               ; preds = %17
  %45 = load i32, ptr %7, align 4, !tbaa !40
  call void @llvm.lifetime.end.p0(i64 4, ptr %7) #3
  ret i32 %45
}

; Function Attrs: mustprogress uwtable
define dso_local noundef i32 @_ZNK7testing8internal12UnitTestImpl30reportable_disabled_test_countEv(ptr noundef nonnull align 8 dereferenceable(713) %0) #4 align 2 {
  %2 = alloca ptr, align 8
  %3 = alloca { i64, i64 }, align 8
  store ptr %0, ptr %2, align 8, !tbaa !54
  %4 = load ptr, ptr %2, align 8
  %5 = getelementptr inbounds nuw %"class.testing::internal::UnitTestImpl", ptr %4, i32 0, i32 9
  store { i64, i64 } { i64 ptrtoint (ptr @_ZNK7testing9TestSuite30reportable_disabled_test_countEv to i64), i64 0 }, ptr %3, align 8, !tbaa !172
  %6 = getelementptr inbounds nuw { i64, i64 }, ptr %3, i32 0, i32 0
  %7 = load i64, ptr %6, align 8
  %8 = getelementptr inbounds nuw { i64, i64 }, ptr %3, i32 0, i32 1
  %9 = load i64, ptr %8, align 8
  %10 = call noundef i32 @_ZN7testing8internalL20SumOverTestSuiteListERKSt6vectorIPNS_9TestSuiteESaIS3_EEMS2_KFivE(ptr noundef nonnull align 8 dereferenceable(24) %5, i64 %7, i64 %9)
  ret i32 %10
}

; Function Attrs: mustprogress nounwind uwtable
define linkonce_odr dso_local noundef ptr @_ZNK7testing8UnitTest4implEv(ptr noundef nonnull align 8 dereferenceable(72) %0) #7 comdat align 2 {
  %2 = alloca ptr, align 8
  store ptr %0, ptr %2, align 8, !tbaa !447
  %3 = load ptr, ptr %2, align 8
  %4 = getelementptr inbounds nuw %"class.testing::UnitTest", ptr %3, i32 0, i32 2
  %5 = load ptr, ptr %4, align 8, !tbaa !448
  ret ptr %5
}

; Function Attrs: mustprogress uwtable
define dso_local noundef i32 @_ZNK7testing8UnitTest30reportable_disabled_test_countEv(ptr noundef nonnull align 8 dereferenceable(72) %0) #4 align 2 {
  %2 = alloca ptr, align 8
  store ptr %0, ptr %2, align 8, !tbaa !447
  %3 = load ptr, ptr %2, align 8
  %4 = call noundef ptr @_ZNK7testing8UnitTest4implEv(ptr noundef nonnull align 8 dereferenceable(72) %3)
  %5 = call noundef i32 @_ZNK7testing8internal12UnitTestImpl30reportable_disabled_test_countEv(ptr noundef nonnull align 8 dereferenceable(713) %4)
  ret i32 %5
}